target datalayout = "e-m:e-p270:32:32-p271:32:32-p272:64:64-i64:64-i128:128-f80:128-n8:16:32:64-S128"
target triple = "x86_64-pc-linux-gnu"

%struct.KINMemRec = type { ptr, double, ptr, ptr, double, double, i32, i64, i64, i64, i64, i32, i32, i32, i32, i32, i32, i32, i32, double, double, double, double, double, double, double, double, double, i32, double, i64, i64, i64, i64, i64, i64, i64, ptr, ptr, ptr, ptr, ptr, ptr, ptr, ptr, ptr, ptr, ptr, i32, i32, double, ptr, ptr, ptr, ptr, ptr, double, ptr, ptr, ptr, ptr, i64, i64, i32, ptr, ptr, i32, ptr, ptr, i64, i64, i64, i64, ptr, ptr, ptr, ptr, i32, ptr, double, double, double, double, double, i32, double, double, double, i32 }

; Function Attrs: nounwind uwtable
define internal void @KINForcingTerm(ptr noundef %0, double noundef %1) #0 {
  %3 = alloca ptr, align 8
  %4 = alloca double, align 8
  %5 = alloca double, align 8
  %6 = alloca double, align 8
  %7 = alloca double, align 8
  %8 = alloca double, align 8
  store ptr %0, ptr %3, align 8, !tbaa !8
  store double %1, ptr %4, align 8, !tbaa !20
  call void @llvm.lifetime.start.p0(i64 8, ptr %5) #10
  call void @llvm.lifetime.start.p0(i64 8, ptr %6) #10
  call void @llvm.lifetime.start.p0(i64 8, ptr %7) #10
  call void @llvm.lifetime.start.p0(i64 8, ptr %8) #10
  store double 9.000000e-01, ptr %5, align 8, !tbaa !20
  store double 1.000000e-04, ptr %6, align 8, !tbaa !20
  store double 5.000000e-01, ptr %7, align 8, !tbaa !20
  %9 = load ptr, ptr %3, align 8, !tbaa !8
  %10 = getelementptr inbounds nuw %struct.KINMemRec, ptr %9, i32 0, i32 11
  %11 = load i32, ptr %10, align 8, !tbaa !72
  %12 = icmp eq i32 %11, 1
  br i1 %12, label %13, label %73

13:                                               ; preds = %2
  %14 = load ptr, ptr %3, align 8, !tbaa !8
  %15 = getelementptr inbounds nuw %struct.KINMemRec, ptr %14, i32 0, i32 79
  %16 = load double, ptr %15, align 8, !tbaa !132
  %17 = load ptr, ptr %3, align 8, !tbaa !8
  %18 = getelementptr inbounds nuw %struct.KINMemRec, ptr %17, i32 0, i32 79
  %19 = load double, ptr %18, align 8, !tbaa !132
  %20 = load ptr, ptr %3, align 8, !tbaa !8
  %21 = getelementptr inbounds nuw %struct.KINMemRec, ptr %20, i32 0, i32 81
  %22 = load double, ptr %21, align 8, !tbaa !146
  %23 = fmul double 2.000000e+00, %22
  %24 = call double @llvm.fmuladd.f64(double %16, double %19, double %23)
  %25 = load ptr, ptr %3, align 8, !tbaa !8
  %26 = getelementptr inbounds nuw %struct.KINMemRec, ptr %25, i32 0, i32 82
  %27 = load double, ptr %26, align 8, !tbaa !147
  %28 = load ptr, ptr %3, align 8, !tbaa !8
  %29 = getelementptr inbounds nuw %struct.KINMemRec, ptr %28, i32 0, i32 82
  %30 = load double, ptr %29, align 8, !tbaa !147
  %31 = call double @llvm.fmuladd.f64(double %27, double %30, double %24)
  %32 = fcmp ole double %31, 0.000000e+00
  br i1 %32, label %33, label %34

33:                                               ; preds = %13
  br label %54

34:                                               ; preds = %13
  %35 = load ptr, ptr %3, align 8, !tbaa !8
  %36 = getelementptr inbounds nuw %struct.KINMemRec, ptr %35, i32 0, i32 79
  %37 = load double, ptr %36, align 8, !tbaa !132
  %38 = load ptr, ptr %3, align 8, !tbaa !8
  %39 = getelementptr inbounds nuw %struct.KINMemRec, ptr %38, i32 0, i32 79
  %40 = load double, ptr %39, align 8, !tbaa !132
  %41 = load ptr, ptr %3, align 8, !tbaa !8
  %42 = getelementptr inbounds nuw %struct.KINMemRec, ptr %41, i32 0, i32 81
  %43 = load double, ptr %42, align 8, !tbaa !146
  %44 = fmul double 2.000000e+00, %43
  %45 = call double @llvm.fmuladd.f64(double %37, double %40, double %44)
  %46 = load ptr, ptr %3, align 8, !tbaa !8
  %47 = getelementptr inbounds nuw %struct.KINMemRec, ptr %46, i32 0, i32 82
  %48 = load double, ptr %47, align 8, !tbaa !147
  %49 = load ptr, ptr %3, align 8, !tbaa !8
  %50 = getelementptr inbounds nuw %struct.KINMemRec, ptr %49, i32 0, i32 82
  %51 = load double, ptr %50, align 8, !tbaa !147
  %52 = call double @llvm.fmuladd.f64(double %48, double %51, double %45)
  %53 = call double @sqrt(double noundef %52) #10, !tbaa !68
  br label %54

54:                                               ; preds = %34, %33
  %55 = phi double [ 0.000000e+00, %33 ], [ %53, %34 ]
  store double %55, ptr %8, align 8, !tbaa !20
  %56 = load ptr, ptr %3, align 8, !tbaa !8
  %57 = getelementptr inbounds nuw %struct.KINMemRec, ptr %56, i32 0, i32 25
  %58 = load double, ptr %57, align 8, !tbaa !73
  %59 = load ptr, ptr %3, align 8, !tbaa !8
  %60 = getelementptr inbounds nuw %struct.KINMemRec, ptr %59, i32 0, i32 27
  %61 = load double, ptr %60, align 8, !tbaa !74
  %62 = call double @SUNRpowerR(double noundef %58, double noundef %61)
  store double %62, ptr %7, align 8, !tbaa !20
  %63 = load double, ptr %4, align 8, !tbaa !20
  %64 = load double, ptr %8, align 8, !tbaa !20
  %65 = fsub double %63, %64
  %66 = call double @llvm.fabs.f64(double %65)
  %67 = load ptr, ptr %3, align 8, !tbaa !8
  %68 = getelementptr inbounds nuw %struct.KINMemRec, ptr %67, i32 0, i32 79
  %69 = load double, ptr %68, align 8, !tbaa !132
  %70 = fdiv double %66, %69
  %71 = load ptr, ptr %3, align 8, !tbaa !8
  %72 = getelementptr inbounds nuw %struct.KINMemRec, ptr %71, i32 0, i32 25
  store double %70, ptr %72, align 8, !tbaa !73
  br label %73

73:                                               ; preds = %54, %2
  %74 = load ptr, ptr %3, align 8, !tbaa !8
  %75 = getelementptr inbounds nuw %struct.KINMemRec, ptr %74, i32 0, i32 11
  %76 = load i32, ptr %75, align 8, !tbaa !72
  %77 = icmp eq i32 %76, 2
  br i1 %77, label %78, label %105

78:                                               ; preds = %73
  %79 = load ptr, ptr %3, align 8, !tbaa !8
  %80 = getelementptr inbounds nuw %struct.KINMemRec, ptr %79, i32 0, i32 26
  %81 = load double, ptr %80, align 8, !tbaa !75
  %82 = load ptr, ptr %3, align 8, !tbaa !8
  %83 = getelementptr inbounds nuw %struct.KINMemRec, ptr %82, i32 0, i32 25
  %84 = load double, ptr %83, align 8, !tbaa !73
  %85 = load ptr, ptr %3, align 8, !tbaa !8
  %86 = getelementptr inbounds nuw %struct.KINMemRec, ptr %85, i32 0, i32 27
  %87 = load double, ptr %86, align 8, !tbaa !74
  %88 = call double @SUNRpowerR(double noundef %84, double noundef %87)
  %89 = fmul double %81, %88
  store double %89, ptr %7, align 8, !tbaa !20
  %90 = load ptr, ptr %3, align 8, !tbaa !8
  %91 = getelementptr inbounds nuw %struct.KINMemRec, ptr %90, i32 0, i32 26
  %92 = load double, ptr %91, align 8, !tbaa !75
  %93 = load double, ptr %4, align 8, !tbaa !20
  %94 = load ptr, ptr %3, align 8, !tbaa !8
  %95 = getelementptr inbounds nuw %struct.KINMemRec, ptr %94, i32 0, i32 79
  %96 = load double, ptr %95, align 8, !tbaa !132
  %97 = fdiv double %93, %96
  %98 = load ptr, ptr %3, align 8, !tbaa !8
  %99 = getelementptr inbounds nuw %struct.KINMemRec, ptr %98, i32 0, i32 27
  %100 = load double, ptr %99, align 8, !tbaa !74
  %101 = call double @SUNRpowerR(double noundef %97, double noundef %100)
  %102 = fmul double %92, %101
  %103 = load ptr, ptr %3, align 8, !tbaa !8
  %104 = getelementptr inbounds nuw %struct.KINMemRec, ptr %103, i32 0, i32 25
  store double %102, ptr %104, align 8, !tbaa !73
  br label %105

105:                                              ; preds = %78, %73
  %106 = load double, ptr %7, align 8, !tbaa !20
  %107 = fcmp olt double %106, 1.000000e-01
  br i1 %107, label %108, label %109

108:                                              ; preds = %105
  store double 0.000000e+00, ptr %7, align 8, !tbaa !20
  br label %109

109:                                              ; preds = %108, %105
  %110 = load ptr, ptr %3, align 8, !tbaa !8
  %111 = getelementptr inbounds nuw %struct.KINMemRec, ptr %110, i32 0, i32 25
  %112 = load double, ptr %111, align 8, !tbaa !73
  %113 = load double, ptr %7, align 8, !tbaa !20
  %114 = fcmp ogt double %112, %113
  br i1 %114, label %115, label %119

115:                                              ; preds = %109
  %116 = load ptr, ptr %3, align 8, !tbaa !8
  %117 = getelementptr inbounds nuw %struct.KINMemRec, ptr %116, i32 0, i32 25
  %118 = load double, ptr %117, align 8, !tbaa !73
  br label %121

119:                                              ; preds = %109
  %120 = load double, ptr %7, align 8, !tbaa !20
  br label %121

121:                                              ; preds = %119, %115
  %122 = phi double [ %118, %115 ], [ %120, %119 ]
  %123 = load ptr, ptr %3, align 8, !tbaa !8
  %124 = getelementptr inbounds nuw %struct.KINMemRec, ptr %123, i32 0, i32 25
  store double %122, ptr %124, align 8, !tbaa !73
  %125 = load ptr, ptr %3, align 8, !tbaa !8
  %126 = getelementptr inbounds nuw %struct.KINMemRec, ptr %125, i32 0, i32 25
  %127 = load double, ptr %126, align 8, !tbaa !73
  %128 = load double, ptr %6, align 8, !tbaa !20
  %129 = fcmp ogt double %127, %128
  br i1 %129, label %130, label %134

130:                                              ; preds = %121
  %131 = load ptr, ptr %3, align 8, !tbaa !8
  %132 = getelementptr inbounds nuw %struct.KINMemRec, ptr %131, i32 0, i32 25
  %133 = load double, ptr %132, align 8, !tbaa !73
  br label %136

134:                                              ; preds = %121
  %135 = load double, ptr %6, align 8, !tbaa !20
  br label %136

136:                                              ; preds = %134, %130
  %137 = phi double [ %133, %130 ], [ %135, %134 ]
  %138 = load ptr, ptr %3, align 8, !tbaa !8
  %139 = getelementptr inbounds nuw %struct.KINMemRec, ptr %138, i32 0, i32 25
  store double %137, ptr %139, align 8, !tbaa !73
  %140 = load ptr, ptr %3, align 8, !tbaa !8
  %141 = getelementptr inbounds nuw %struct.KINMemRec, ptr %140, i32 0, i32 25
  %142 = load double, ptr %141, align 8, !tbaa !73
  %143 = load double, ptr %5, align 8, !tbaa !20
  %144 = fcmp olt double %142, %143
  br i1 %144, label %145, label %149

145:                                              ; preds = %136
  %146 = load ptr, ptr %3, align 8, !tbaa !8
  %147 = getelementptr inbounds nuw %struct.KINMemRec, ptr %146, i32 0, i32 25
  %148 = load double, ptr %147, align 8, !tbaa !73
  br label %151

149:                                              ; preds = %136
  %150 = load double, ptr %5, align 8, !tbaa !20
  br label %151

151:                                              ; preds = %149, %145
  %152 = phi double [ %148, %145 ], [ %150, %149 ]
  %153 = load ptr, ptr %3, align 8, !tbaa !8
  %154 = getelementptr inbounds nuw %struct.KINMemRec, ptr %153, i32 0, i32 25
  store double %152, ptr %154, align 8, !tbaa !73
  call void @llvm.lifetime.end.p0(i64 8, ptr %8) #10
  call void @llvm.lifetime.end.p0(i64 8, ptr %7) #10
  call void @llvm.lifetime.end.p0(i64 8, ptr %6) #10
  call void @llvm.lifetime.end.p0(i64 8, ptr %5) #10
  ret void
}