; Function Attrs: nounwind uwtable
define internal fastcc void @KINForcingTerm(ptr noundef nonnull captures(none) %0, double noundef %1) unnamed_addr #0 {
  %3 = getelementptr inbounds nuw i8, ptr %0, i64 88
  %4 = load i32, ptr %3, align 8, !tbaa !28
  %5 = icmp eq i32 %4, 1
  br i1 %5, label %6, label %30

6:                                                ; preds = %2
  %7 = getelementptr inbounds nuw i8, ptr %0, i64 592
  %8 = load double, ptr %7, align 8, !tbaa !109
  %9 = getelementptr inbounds nuw i8, ptr %0, i64 608
  %10 = load double, ptr %9, align 8, !tbaa !136
  %11 = fmul double %10, 2.000000e+00
  %12 = tail call double @llvm.fmuladd.f64(double %8, double %8, double %11)
  %13 = getelementptr inbounds nuw i8, ptr %0, i64 616
  %14 = load double, ptr %13, align 8, !tbaa !137
  %15 = tail call double @llvm.fmuladd.f64(double %14, double %14, double %12)
  %16 = fcmp ugt double %15, 0.000000e+00
  br i1 %16, label %17, label %19

17:                                               ; preds = %6
  %18 = tail call double @sqrt(double noundef %15) #15, !tbaa !138
  br label %19

19:                                               ; preds = %6, %17
  %20 = phi double [ %18, %17 ], [ 0.000000e+00, %6 ]
  %21 = getelementptr inbounds nuw i8, ptr %0, i64 168
  %22 = load double, ptr %21, align 8, !tbaa !29
  %23 = getelementptr inbounds nuw i8, ptr %0, i64 184
  %24 = load double, ptr %23, align 8, !tbaa !30
  %25 = tail call double @SUNRpowerR(double noundef %22, double noundef %24) #15
  %26 = fsub double %1, %20
  %27 = tail call double @llvm.fabs.f64(double %26)
  %28 = load double, ptr %7, align 8, !tbaa !109
  %29 = fdiv double %27, %28
  store double %29, ptr %21, align 8, !tbaa !29
  %.pr = load i32, ptr %3, align 8, !tbaa !28
  br label %30

30:                                               ; preds = %19, %2
  %31 = phi i32 [ %.pr, %19 ], [ %4, %2 ]
  %.0 = phi double [ %25, %19 ], [ 5.000000e-01, %2 ]
  %32 = icmp eq i32 %31, 2
  br i1 %32, label %33, label %._crit_edge

._crit_edge:                                      ; preds = %30
  %.phi.trans.insert = getelementptr inbounds nuw i8, ptr %0, i64 168
  %.pre = load double, ptr %.phi.trans.insert, align 8, !tbaa !29
  br label %49

33:                                               ; preds = %30
  %34 = getelementptr inbounds nuw i8, ptr %0, i64 176
  %35 = load double, ptr %34, align 8, !tbaa !31
  %36 = getelementptr inbounds nuw i8, ptr %0, i64 168
  %37 = load double, ptr %36, align 8, !tbaa !29
  %38 = getelementptr inbounds nuw i8, ptr %0, i64 184
  %39 = load double, ptr %38, align 8, !tbaa !30
  %40 = tail call double @SUNRpowerR(double noundef %37, double noundef %39) #15
  %41 = fmul double %35, %40
  %42 = load double, ptr %34, align 8, !tbaa !31
  %43 = getelementptr inbounds nuw i8, ptr %0, i64 592
  %44 = load double, ptr %43, align 8, !tbaa !109
  %45 = fdiv double %1, %44
  %46 = load double, ptr %38, align 8, !tbaa !30
  %47 = tail call double @SUNRpowerR(double noundef %45, double noundef %46) #15
  %48 = fmul double %42, %47
  br label %49

49:                                               ; preds = %._crit_edge, %33
  %50 = phi double [ %48, %33 ], [ %.pre, %._crit_edge ]
  %.1 = phi double [ %41, %33 ], [ %.0, %._crit_edge ]
  %51 = fcmp olt double %.1, 1.000000e-01
  %.2 = select i1 %51, double 0.000000e+00, double %.1
  %52 = getelementptr inbounds nuw i8, ptr %0, i64 168
  %53 = fcmp ogt double %50, %.2
  %54 = select i1 %53, double %50, double %.2
  %55 = fcmp ogt double %54, 1.000000e-04
  %56 = select i1 %55, double %54, double 1.000000e-04
  %57 = fcmp olt double %56, 9.000000e-01
  %58 = select i1 %57, double %56, double 9.000000e-01
  store double %58, ptr %52, align 8, !tbaa !29
  ret void
}